(dp1
S'output'
p2
S"<class 'psycopg2.IntegrityError'> update o delete en \xc2\xabmodelo\xc2\xbb viola la llave for\xc3\xa1nea \xc2\xabpaciente_modelo_fkey\xc2\xbb en la tabla \xc2\xabpaciente\xc2\xbb\nDETAIL:  La llave (id)=(1) todav\xc3\xada es referida desde la tabla \xc2\xabpaciente\xc2\xbb.\n"
p3
sS'layer'
p4
S'C:\\web2py\\applications\\TurnoTaller\\controllers/modeloController.py'
p5
sS'code'
p6
S"#controlador obras sociales\n#encabezado = {'descripcion': 'Descripcion'}\n@auth.requires_login()\ndef administrar_modelo():\n    grid = SQLFORM.grid(db.modelo,user_signature=False,csv=False)\n    return dict(grid=grid)\nresponse._vars=response._caller(administrar_modelo)\n"
p7
sS'snapshot'
p8
(dp9
S'exception'
p10
(dp11
S'__module__'
p12
S"'psycopg2'"
p13
sS'__getslice__'
p14
S"<method-wrapper '__getslice__' of IntegrityError object>"
p15
sS'__str__'
p16
S"<method-wrapper '__str__' of IntegrityError object>"
p17
sS'__reduce__'
p18
S'<built-in method __reduce__ of IntegrityError object>'
p19
sS'__dict__'
p20
S'{}'
p21
sS'__sizeof__'
p22
S'<built-in method __sizeof__ of IntegrityError object>'
p23
sS'__weakref__'
p24
S'None'
p25
sS'__init__'
p26
S"<method-wrapper '__init__' of IntegrityError object>"
p27
sS'__setattr__'
p28
S"<method-wrapper '__setattr__' of IntegrityError object>"
p29
sS'__reduce_ex__'
p30
S'<built-in method __reduce_ex__ of IntegrityError object>'
p31
sS'__new__'
p32
S'<built-in method __new__ of type object>'
p33
sS'diag'
p34
S'<psycopg2._psycopg.Diagnostics object>'
p35
sS'__format__'
p36
S'<built-in method __format__ of IntegrityError object>'
p37
sS'__class__'
p38
S"<class 'psycopg2.IntegrityError'>"
p39
sS'pgerror'
p40
S"'ERROR:  update o delete en \\xc2\\xabmodelo\\xc2\\xbb viola la l...odav\\xc3\\xada es referida desde la tabla \\xc2\\xabpaciente\\xc2\\xbb.\\n'"
p41
sS'__doc__'
p42
S"'Error related to database integrity.'"
p43
sS'__getitem__'
p44
S"<method-wrapper '__getitem__' of IntegrityError object>"
p45
sS'__setstate__'
p46
S'<built-in method __setstate__ of IntegrityError object>'
p47
sS'__getattribute__'
p48
S"<method-wrapper '__getattribute__' of IntegrityError object>"
p49
sS'args'
p50
S"('update o delete en \\xc2\\xabmodelo\\xc2\\xbb viola la llave for...odav\\xc3\\xada es referida desde la tabla \\xc2\\xabpaciente\\xc2\\xbb.\\n',)"
p51
sS'__subclasshook__'
p52
S'<built-in method __subclasshook__ of type object>'
p53
sS'pgcode'
p54
S"'23503'"
p55
sS'__unicode__'
p56
S'<built-in method __unicode__ of IntegrityError object>'
p57
sS'cursor'
p58
S'<cursor object at 0x09848AB0; closed: 0>'
p59
sS'__delattr__'
p60
S"<method-wrapper '__delattr__' of IntegrityError object>"
p61
sS'__repr__'
p62
S"<method-wrapper '__repr__' of IntegrityError object>"
p63
sS'__hash__'
p64
S"<method-wrapper '__hash__' of IntegrityError object>"
p65
ssS'evalue'
p66
S'update o delete en \xc2\xabmodelo\xc2\xbb viola la llave for\xc3\xa1nea \xc2\xabpaciente_modelo_fkey\xc2\xbb en la tabla \xc2\xabpaciente\xc2\xbb\nDETAIL:  La llave (id)=(1) todav\xc3\xada es referida desde la tabla \xc2\xabpaciente\xc2\xbb.\n'
p67
sS'request'
p68
cgluon.html
XML_unpickle
p69
(S's\xf8g\x00\x00<div><table><tr><td style="font-weight:bold;vertical-align:top;">ajax</td><td style="vertical-align:top;">:</td><td><div>True</div></td></tr><tr><td style="font-weight:bold;vertical-align:top;">application</td><td style="vertical-align:top;">:</td><td><div>TurnoTaller</div></td></tr><tr><td style="font-weight:bold;vertical-align:top;">args</td><td style="vertical-align:top;">:</td><td><div><table><tr><td><div>delete</div></td></tr><tr><td><div>modelo</div></td></tr><tr><td><div>1</div></td></tr></table></div></td></tr><tr><td style="font-weight:bold;vertical-align:top;">cid</td><td style="vertical-align:top;">:</td><td><div>w2p_none</div></td></tr><tr><td style="font-weight:bold;vertical-align:top;">client</td><td style="vertical-align:top;">:</td><td><div>127.0.0.1</div></td></tr><tr><td style="font-weight:bold;vertical-align:top;">controller</td><td style="vertical-align:top;">:</td><td><div>modeloController</div></td></tr><tr><td style="font-weight:bold;vertical-align:top;">cookies</td><td style="vertical-align:top;">:</td><td><div><table><tr><td style="font-weight:bold;vertical-align:top;">csrftoken</td><td style="vertical-align:top;">:</td><td><div>qeSCSRY0iXGKKgg5zt9SwIPtwQN8Slxq<table><tr><td style="font-weight:bold;vertical-align:top;">comment</td><td style="vertical-align:top;">:</td><td><div></div></td></tr><tr><td style="font-weight:bold;vertical-align:top;">domain</td><td style="vertical-align:top;">:</td><td><div></div></td></tr><tr><td style="font-weight:bold;vertical-align:top;">expires</td><td style="vertical-align:top;">:</td><td><div></div></td></tr><tr><td style="font-weight:bold;vertical-align:top;">httponly</td><td style="vertical-align:top;">:</td><td><div></div></td></tr><tr><td style="font-weight:bold;vertical-align:top;">max-age</td><td style="vertical-align:top;">:</td><td><div></div></td></tr><tr><td style="font-weight:bold;vertical-align:top;">path</td><td style="vertical-align:top;">:</td><td><div></div></td></tr><tr><td style="font-weight:bold;vertical-align:top;">secure</td><td style="vertical-align:top;">:</td><td><div></div></td></tr><tr><td style="font-weight:bold;vertical-align:top;">version</td><td style="vertical-align:top;">:</td><td><div></div></td></tr></table></div></td></tr><tr><td style="font-weight:bold;vertical-align:top;">session_id_admin</td><td style="vertical-align:top;">:</td><td><div>127.0.0.1-868cb228-6061-462b-aa79-a79d5b4defff<table><tr><td style="font-weight:bold;vertical-align:top;">comment</td><td style="vertical-align:top;">:</td><td><div></div></td></tr><tr><td style="font-weight:bold;vertical-align:top;">domain</td><td style="vertical-align:top;">:</td><td><div></div></td></tr><tr><td style="font-weight:bold;vertical-align:top;">expires</td><td style="vertical-align:top;">:</td><td><div></div></td></tr><tr><td style="font-weight:bold;vertical-align:top;">httponly</td><td style="vertical-align:top;">:</td><td><div></div></td></tr><tr><td style="font-weight:bold;vertical-align:top;">max-age</td><td style="vertical-align:top;">:</td><td><div></div></td></tr><tr><td style="font-weight:bold;vertical-align:top;">path</td><td style="vertical-align:top;">:</td><td><div></div></td></tr><tr><td style="font-weight:bold;vertical-align:top;">secure</td><td style="vertical-align:top;">:</td><td><div></div></td></tr><tr><td style="font-weight:bold;vertical-align:top;">version</td><td style="vertical-align:top;">:</td><td><div></div></td></tr></table></div></td></tr><tr><td style="font-weight:bold;vertical-align:top;">session_id_turnotaller</td><td style="vertical-align:top;">:</td><td><div>127.0.0.1-ad50fba4-c61a-499d-ad91-428a26f3f141<table><tr><td style="font-weight:bold;vertical-align:top;">comment</td><td style="vertical-align:top;">:</td><td><div></div></td></tr><tr><td style="font-weight:bold;vertical-align:top;">domain</td><td style="vertical-align:top;">:</td><td><div></div></td></tr><tr><td style="font-weight:bold;vertical-align:top;">expires</td><td style="vertical-align:top;">:</td><td><div></div></td></tr><tr><td style="font-weight:bold;vertical-align:top;">httponly</td><td style="vertical-align:top;">:</td><td><div></div></td></tr><tr><td style="font-weight:bold;vertical-align:top;">max-age</td><td style="vertical-align:top;">:</td><td><div></div></td></tr><tr><td style="font-weight:bold;vertical-align:top;">path</td><td style="vertical-align:top;">:</td><td><div></div></td></tr><tr><td style="font-weight:bold;vertical-align:top;">secure</td><td style="vertical-align:top;">:</td><td><div></div></td></tr><tr><td style="font-weight:bold;vertical-align:top;">version</td><td style="vertical-align:top;">:</td><td><div></div></td></tr></table></div></td></tr><tr><td style="font-weight:bold;vertical-align:top;">session_id_welcome</td><td style="vertical-align:top;">:</td><td><div>127.0.0.1-42267693-cc60-49e2-8164-7b287c8f89cd<table><tr><td style="font-weight:bold;vertical-align:top;">comment</td><td style="vertical-align:top;">:</td><td><div></div></td></tr><tr><td style="font-weight:bold;vertical-align:top;">domain</td><td style="vertical-align:top;">:</td><td><div></div></td></tr><tr><td style="font-weight:bold;vertical-align:top;">expires</td><td style="vertical-align:top;">:</td><td><div></div></td></tr><tr><td style="font-weight:bold;vertical-align:top;">httponly</td><td style="vertical-align:top;">:</td><td><div></div></td></tr><tr><td style="font-weight:bold;vertical-align:top;">max-age</td><td style="vertical-align:top;">:</td><td><div></div></td></tr><tr><td style="font-weight:bold;vertical-align:top;">path</td><td style="vertical-align:top;">:</td><td><div></div></td></tr><tr><td style="font-weight:bold;vertical-align:top;">secure</td><td style="vertical-align:top;">:</td><td><div></div></td></tr><tr><td style="font-weight:bold;vertical-align:top;">version</td><td style="vertical-align:top;">:</td><td><div></div></td></tr></table></div></td></tr></table></div></td></tr><tr><td style="font-weight:bold;vertical-align:top;">env</td><td style="vertical-align:top;">:</td><td><div><table><tr><td style="font-weight:bold;vertical-align:top;">CONTENT_LENGTH</td><td style="vertical-align:top;">:</td><td><div>0</div></td></tr><tr><td style="font-weight:bold;vertical-align:top;">HTTP_ACCEPT</td><td style="vertical-align:top;">:</td><td><div>*/*</div></td></tr><tr><td style="font-weight:bold;vertical-align:top;">HTTP_ACCEPT_ENCODING</td><td style="vertical-align:top;">:</td><td><div>gzip, deflate</div></td></tr><tr><td style="font-weight:bold;vertical-align:top;">HTTP_ACCEPT_LANGUAGE</td><td style="vertical-align:top;">:</td><td><div>es-ES,es;q=0.8</div></td></tr><tr><td style="font-weight:bold;vertical-align:top;">HTTP_CONNECTION</td><td style="vertical-align:top;">:</td><td><div>keep-alive</div></td></tr><tr><td style="font-weight:bold;vertical-align:top;">HTTP_CONTENT_LENGTH</td><td style="vertical-align:top;">:</td><td><div>0</div></td></tr><tr><td style="font-weight:bold;vertical-align:top;">HTTP_COOKIE</td><td style="vertical-align:top;">:</td><td><div>csrftoken=qeSCSRY0iXGKKgg5zt9SwIPtwQN8Slxq; session_id_welcome=127.0.0.1-42267693-cc60-49e2-8164-7b287c8f89cd; session_id_admin=127.0.0.1-868cb228-6061-462b-aa79-a79d5b4defff; session_id_turnotaller=127.0.0.1-ad50fba4-c61a-499d-ad91-428a26f3f141</div></td></tr><tr><td style="font-weight:bold;vertical-align:top;">HTTP_HOST</td><td style="vertical-align:top;">:</td><td><div>127.0.0.1:8000</div></td></tr><tr><td style="font-weight:bold;vertical-align:top;">HTTP_ORIGIN</td><td style="vertical-align:top;">:</td><td><div>http://127.0.0.1:8000</div></td></tr><tr><td style="font-weight:bold;vertical-align:top;">HTTP_REFERER</td><td style="vertical-align:top;">:</td><td><div>http://127.0.0.1:8000/TurnoTaller/modeloController/administrar_modelo</div></td></tr><tr><td style="font-weight:bold;vertical-align:top;">HTTP_USER_AGENT</td><td style="vertical-align:top;">:</td><td><div>Mozilla/5.0 (Windows NT 10.0; WOW64) AppleWebKit/537.36 (KHTML, like Gecko) Chrome/52.0.2743.116 Safari/537.36</div></td></tr><tr><td style="font-weight:bold;vertical-align:top;">HTTP_WEB2PY_COMPONENT_ELEMENT</td><td style="vertical-align:top;">:</td><td><div>w2p_none</div></td></tr><tr><td style="font-weight:bold;vertical-align:top;">HTTP_WEB2PY_COMPONENT_LOCATION</td><td style="vertical-align:top;">:</td><td><div>http://127.0.0.1:8000/TurnoTaller/modeloController/administrar_modelo</div></td></tr><tr><td style="font-weight:bold;vertical-align:top;">HTTP_X_REQUESTED_WITH</td><td style="vertical-align:top;">:</td><td><div>XMLHttpRequest</div></td></tr><tr><td style="font-weight:bold;vertical-align:top;">PATH_INFO</td><td style="vertical-align:top;">:</td><td><div>/TurnoTaller/modeloController/administrar_modelo/delete/modelo/1</div></td></tr><tr><td style="font-weight:bold;vertical-align:top;">QUERY_STRING</td><td style="vertical-align:top;">:</td><td><div></div></td></tr><tr><td style="font-weight:bold;vertical-align:top;">REMOTE_ADDR</td><td style="vertical-align:top;">:</td><td><div>127.0.0.1</div></td></tr><tr><td style="font-weight:bold;vertical-align:top;">REMOTE_PORT</td><td style="vertical-align:top;">:</td><td><div>53037</div></td></tr><tr><td style="font-weight:bold;vertical-align:top;">REQUEST_METHOD</td><td style="vertical-align:top;">:</td><td><div>POST</div></td></tr><tr><td style="font-weight:bold;vertical-align:top;">SCRIPT_NAME</td><td style="vertical-align:top;">:</td><td><div></div></td></tr><tr><td style="font-weight:bold;vertical-align:top;">SERVER_NAME</td><td style="vertical-align:top;">:</td><td><div>Qno</div></td></tr><tr><td style="font-weight:bold;vertical-align:top;">SERVER_PORT</td><td style="vertical-align:top;">:</td><td><div>8000</div></td></tr><tr><td style="font-weight:bold;vertical-align:top;">SERVER_PROTOCOL</td><td style="vertical-align:top;">:</td><td><div>HTTP/1.1</div></td></tr><tr><td style="font-weight:bold;vertical-align:top;">SERVER_SOFTWARE</td><td style="vertical-align:top;">:</td><td><div>Rocket 1.2.6</div></td></tr><tr><td style="font-weight:bold;vertical-align:top;">app_folders</td><td style="vertical-align:top;">:</td><td><div>set([&#x27;C:\\\\web2py\\\\applications\\\\admin\\\\&#x27;, &#x27;C:\\\\web2py\\\\applications\\\\welcome\\\\&#x27;, &#x27;C:\\\\web2py\\\\applications\\\\TurnoTaller\\\\&#x27;])</div></td></tr><tr><td style="font-weight:bold;vertical-align:top;">applications_parent</td><td style="vertical-align:top;">:</td><td><div>C:\\web2py</div></td></tr><tr><td style="font-weight:bold;vertical-align:top;">cmd_args</td><td style="vertical-align:top;">:</td><td><div><table></table></div></td></tr><tr><td style="font-weight:bold;vertical-align:top;">cmd_options</td><td style="vertical-align:top;">:</td><td><div>&lt;Values at 0x3134df0: {&#x27;verbose&#x27;: False, &#x27;ip&#x27;: &#x27;127.0.0.1&#x27;, &#x27;debuglevel&#x27;: 30, &#x27;with_scheduler&#x27;: False, &#x27;shutdown_timeout&#x27;: 5, &#x27;taskbar&#x27;: False, &#x27;with_coverage&#x27;: False, &#x27;pid_filename&#x27;: &#x27;httpserver.pid&#x27;, &#x27;maxthreads&#x27;: None, &#x27;softcron&#x27;: False, &#x27;server_name&#x27;: &#x27;Qno&#x27;, &#x27;bpython&#x27;: False, &#x27;nogui&#x27;: False, &#x27;port&#x27;: 8000, &#x27;print_errors&#x27;: False, &#x27;extcron&#x27;: False, &#x27;runcron&#x27;: False, &#x27;run_system_tests&#x27;: False, &#x27;test&#x27;: None, &#x27;folder&#x27;: &#x27;C:\\\\web2py&#x27;, &#x27;config&#x27;: &#x27;&#x27;, &#x27;minthreads&#x27;: None, &#x27;shell&#x27;: None, &#x27;run&#x27;: &#x27;&#x27;, &#x27;log_filename&#x27;: &#x27;httpserver.log&#x27;, &#x27;profiler_dir&#x27;: None, &#x27;args&#x27;: [&#x27;&#x27;], &#x27;socket_timeout&#x27;: 5, &#x27;ssl_ca_certificate&#x27;: None, &#x27;scheduler&#x27;: None, &#x27;interfaces&#x27;: None, &#x27;ssl_private_key&#x27;: &#x27;&#x27;, &#x27;gae&#x27;: None, &#x27;password&#x27;: &#x27;******&#x27;, &#x27;request_queue_size&#x27;: 5, &#x27;ssl_certificate&#x27;: &#x27;&#x27;, &#x27;cronjob&#x27;: False, &#x27;numthreads&#x27;: None, &#x27;quiet&#x27;: False, &#x27;import_models&#x27;: False, &#x27;timeout&#x27;: 10, &#x27;plain&#x27;: False, &#x27;nobanner&#x27;: False}&gt;</div></td></tr><tr><td style="font-weight:bold;vertical-align:top;">content_length</td><td style="vertical-align:top;">:</td><td><div>0</div></td></tr><tr><td style="font-weight:bold;vertical-align:top;">db_sessions</td><td style="vertical-align:top;">:</td><td><div>set([])</div></td></tr><tr><td style="font-weight:bold;vertical-align:top;">debugging</td><td style="vertical-align:top;">:</td><td><div>False</div></td></tr><tr><td style="font-weight:bold;vertical-align:top;">gluon_parent</td><td style="vertical-align:top;">:</td><td><div>C:\\web2py</div></td></tr><tr><td style="font-weight:bold;vertical-align:top;">http_accept</td><td style="vertical-align:top;">:</td><td><div>*/*</div></td></tr><tr><td style="font-weight:bold;vertical-align:top;">http_accept_encoding</td><td style="vertical-align:top;">:</td><td><div>gzip, deflate</div></td></tr><tr><td style="font-weight:bold;vertical-align:top;">http_accept_language</td><td style="vertical-align:top;">:</td><td><div>es-ES,es;q=0.8</div></td></tr><tr><td style="font-weight:bold;vertical-align:top;">http_connection</td><td style="vertical-align:top;">:</td><td><div>keep-alive</div></td></tr><tr><td style="font-weight:bold;vertical-align:top;">http_content_length</td><td style="vertical-align:top;">:</td><td><div>0</div></td></tr><tr><td style="font-weight:bold;vertical-align:top;">http_cookie</td><td style="vertical-align:top;">:</td><td><div>csrftoken=qeSCSRY0iXGKKgg5zt9SwIPtwQN8Slxq; session_id_welcome=127.0.0.1-42267693-cc60-49e2-8164-7b287c8f89cd; session_id_admin=127.0.0.1-868cb228-6061-462b-aa79-a79d5b4defff; session_id_turnotaller=127.0.0.1-ad50fba4-c61a-499d-ad91-428a26f3f141</div></td></tr><tr><td style="font-weight:bold;vertical-align:top;">http_host</td><td style="vertical-align:top;">:</td><td><div>127.0.0.1:8000</div></td></tr><tr><td style="font-weight:bold;vertical-align:top;">http_origin</td><td style="vertical-align:top;">:</td><td><div>http://127.0.0.1:8000</div></td></tr><tr><td style="font-weight:bold;vertical-align:top;">http_referer</td><td style="vertical-align:top;">:</td><td><div>http://127.0.0.1:8000/TurnoTaller/modeloController/administrar_modelo</div></td></tr><tr><td style="font-weight:bold;vertical-align:top;">http_user_agent</td><td style="vertical-align:top;">:</td><td><div>Mozilla/5.0 (Windows NT 10.0; WOW64) AppleWebKit/537.36 (KHTML, like Gecko) Chrome/52.0.2743.116 Safari/537.36</div></td></tr><tr><td style="font-weight:bold;vertical-align:top;">http_web2py_component_element</td><td style="vertical-align:top;">:</td><td><div>w2p_none</div></td></tr><tr><td style="font-weight:bold;vertical-align:top;">http_web2py_component_location</td><td style="vertical-align:top;">:</td><td><div>http://127.0.0.1:8000/TurnoTaller/modeloController/administrar_modelo</div></td></tr><tr><td style="font-weight:bold;vertical-align:top;">http_x_requested_with</td><td style="vertical-align:top;">:</td><td><div>XMLHttpRequest</div></td></tr><tr><td style="font-weight:bold;vertical-align:top;">is_jython</td><td style="vertical-align:top;">:</td><td><div>False</div></td></tr><tr><td style="font-weight:bold;vertical-align:top;">is_pypy</td><td style="vertical-align:top;">:</td><td><div>False</div></td></tr><tr><td style="font-weight:bold;vertical-align:top;">is_source</td><td style="vertical-align:top;">:</td><td><div>False</div></td></tr><tr><td style="font-weight:bold;vertical-align:top;">local_hosts</td><td style="vertical-align:top;">:</td><td><div><table><tr><td><div>10.3.1.88</div></td></tr><tr><td><div>fe80::1041:2307:f5fc:fea7%12</div></td></tr><tr><td><div>fe80::15f0:4669:1e1f:fdfa%9</div></td></tr><tr><td><div>::ffff:127.0.0.1</div></td></tr><tr><td><div>::1</div></td></tr><tr><td><div>2001:0:9d38:90d7:1041:2307:f5fc:fea7</div></td></tr><tr><td><div>Qno</div></td></tr><tr><td><div>127.0.0.1</div></td></tr></table></div></td></tr><tr><td style="font-weight:bold;vertical-align:top;">path_info</td><td style="vertical-align:top;">:</td><td><div>/TurnoTaller/modeloController/administrar_modelo/delete/modelo/1</div></td></tr><tr><td style="font-weight:bold;vertical-align:top;">query_string</td><td style="vertical-align:top;">:</td><td><div></div></td></tr><tr><td style="font-weight:bold;vertical-align:top;">remote_addr</td><td style="vertical-align:top;">:</td><td><div>127.0.0.1</div></td></tr><tr><td style="font-weight:bold;vertical-align:top;">remote_port</td><td style="vertical-align:top;">:</td><td><div>53037</div></td></tr><tr><td style="font-weight:bold;vertical-align:top;">request_method</td><td style="vertical-align:top;">:</td><td><div>POST</div></td></tr><tr><td style="font-weight:bold;vertical-align:top;">request_uri</td><td style="vertical-align:top;">:</td><td><div>/TurnoTaller/modeloController/administrar_modelo/delete/modelo/1</div></td></tr><tr><td style="font-weight:bold;vertical-align:top;">script_name</td><td style="vertical-align:top;">:</td><td><div></div></td></tr><tr><td style="font-weight:bold;vertical-align:top;">server_name</td><td style="vertical-align:top;">:</td><td><div>Qno</div></td></tr><tr><td style="font-weight:bold;vertical-align:top;">server_port</td><td style="vertical-align:top;">:</td><td><div>8000</div></td></tr><tr><td style="font-weight:bold;vertical-align:top;">server_protocol</td><td style="vertical-align:top;">:</td><td><div>HTTP/1.1</div></td></tr><tr><td style="font-weight:bold;vertical-align:top;">server_software</td><td style="vertical-align:top;">:</td><td><div>Rocket 1.2.6</div></td></tr><tr><td style="font-weight:bold;vertical-align:top;">web2py_path</td><td style="vertical-align:top;">:</td><td><div>C:\\web2py</div></td></tr><tr><td style="font-weight:bold;vertical-align:top;">web2py_version</td><td style="vertical-align:top;">:</td><td><div>2.14.6-stable+timestamp.2016.05.10.00.21.47</div></td></tr><tr><td style="font-weight:bold;vertical-align:top;">wsgi.errors</td><td style="vertical-align:top;">:</td><td><div>&lt;open file &#x27;&lt;stderr&gt;&#x27;, mode &#x27;w&#x27; at 0x0210D0D0&gt;</div></td></tr><tr><td style="font-weight:bold;vertical-align:top;">wsgi.file_wrapper</td><td style="vertical-align:top;">:</td><td><div>&lt;class wsgiref.util.FileWrapper at 0x02CE2570&gt;</div></td></tr><tr><td style="font-weight:bold;vertical-align:top;">wsgi.input</td><td style="vertical-align:top;">:</td><td><div>&lt;socket._fileobject object at 0x098DC970&gt;</div></td></tr><tr><td style="font-weight:bold;vertical-align:top;">wsgi.multiprocess</td><td style="vertical-align:top;">:</td><td><div>False</div></td></tr><tr><td style="font-weight:bold;vertical-align:top;">wsgi.multithread</td><td style="vertical-align:top;">:</td><td><div>True</div></td></tr><tr><td style="font-weight:bold;vertical-align:top;">wsgi.run_once</td><td style="vertical-align:top;">:</td><td><div>False</div></td></tr><tr><td style="font-weight:bold;vertical-align:top;">wsgi.url_scheme</td><td style="vertical-align:top;">:</td><td><div>http</div></td></tr><tr><td style="font-weight:bold;vertical-align:top;">wsgi.version</td><td style="vertical-align:top;">:</td><td><div><table><tr><td><div>1</div></td></tr><tr><td><div>0</div></td></tr></table></div></td></tr><tr><td style="font-weight:bold;vertical-align:top;">wsgi_errors</td><td style="vertical-align:top;">:</td><td><div>&lt;open file &#x27;&lt;stderr&gt;&#x27;, mode &#x27;w&#x27; at 0x0210D0D0&gt;</div></td></tr><tr><td style="font-weight:bold;vertical-align:top;">wsgi_file_wrapper</td><td style="vertical-align:top;">:</td><td><div>&lt;class wsgiref.util.FileWrapper at 0x02CE2570&gt;</div></td></tr><tr><td style="font-weight:bold;vertical-align:top;">wsgi_input</td><td style="vertical-align:top;">:</td><td><div>&lt;socket._fileobject object at 0x098DC970&gt;</div></td></tr><tr><td style="font-weight:bold;vertical-align:top;">wsgi_multiprocess</td><td style="vertical-align:top;">:</td><td><div>False</div></td></tr><tr><td style="font-weight:bold;vertical-align:top;">wsgi_multithread</td><td style="vertical-align:top;">:</td><td><div>True</div></td></tr><tr><td style="font-weight:bold;vertical-align:top;">wsgi_run_once</td><td style="vertical-align:top;">:</td><td><div>False</div></td></tr><tr><td style="font-weight:bold;vertical-align:top;">wsgi_url_scheme</td><td style="vertical-align:top;">:</td><td><div>http</div></td></tr><tr><td style="font-weight:bold;vertical-align:top;">wsgi_version</td><td style="vertical-align:top;">:</td><td><div><table><tr><td><div>1</div></td></tr><tr><td><div>0</div></td></tr></table></div></td></tr></table></div></td></tr><tr><td style="font-weight:bold;vertical-align:top;">extension</td><td style="vertical-align:top;">:</td><td><div>html</div></td></tr><tr><td style="font-weight:bold;vertical-align:top;">folder</td><td style="vertical-align:top;">:</td><td><div>C:\\web2py\\applications\\TurnoTaller\\</div></td></tr><tr><td style="font-weight:bold;vertical-align:top;">function</td><td style="vertical-align:top;">:</td><td><div>administrar_modelo</div></td></tr><tr><td style="font-weight:bold;vertical-align:top;">global_settings</td><td style="vertical-align:top;">:</td><td><div><table><tr><td style="font-weight:bold;vertical-align:top;">app_folders</td><td style="vertical-align:top;">:</td><td><div>set([&#x27;C:\\\\web2py\\\\applications\\\\admin\\\\&#x27;, &#x27;C:\\\\web2py\\\\applications\\\\welcome\\\\&#x27;, &#x27;C:\\\\web2py\\\\applications\\\\TurnoTaller\\\\&#x27;])</div></td></tr><tr><td style="font-weight:bold;vertical-align:top;">applications_parent</td><td style="vertical-align:top;">:</td><td><div>C:\\web2py</div></td></tr><tr><td style="font-weight:bold;vertical-align:top;">cmd_args</td><td style="vertical-align:top;">:</td><td><div><table></table></div></td></tr><tr><td style="font-weight:bold;vertical-align:top;">cmd_options</td><td style="vertical-align:top;">:</td><td><div>&lt;Values at 0x3134df0: {&#x27;verbose&#x27;: False, &#x27;ip&#x27;: &#x27;127.0.0.1&#x27;, &#x27;debuglevel&#x27;: 30, &#x27;with_scheduler&#x27;: False, &#x27;shutdown_timeout&#x27;: 5, &#x27;taskbar&#x27;: False, &#x27;with_coverage&#x27;: False, &#x27;pid_filename&#x27;: &#x27;httpserver.pid&#x27;, &#x27;maxthreads&#x27;: None, &#x27;softcron&#x27;: False, &#x27;server_name&#x27;: &#x27;Qno&#x27;, &#x27;bpython&#x27;: False, &#x27;nogui&#x27;: False, &#x27;port&#x27;: 8000, &#x27;print_errors&#x27;: False, &#x27;extcron&#x27;: False, &#x27;runcron&#x27;: False, &#x27;run_system_tests&#x27;: False, &#x27;test&#x27;: None, &#x27;folder&#x27;: &#x27;C:\\\\web2py&#x27;, &#x27;config&#x27;: &#x27;&#x27;, &#x27;minthreads&#x27;: None, &#x27;shell&#x27;: None, &#x27;run&#x27;: &#x27;&#x27;, &#x27;log_filename&#x27;: &#x27;httpserver.log&#x27;, &#x27;profiler_dir&#x27;: None, &#x27;args&#x27;: [&#x27;&#x27;], &#x27;socket_timeout&#x27;: 5, &#x27;ssl_ca_certificate&#x27;: None, &#x27;scheduler&#x27;: None, &#x27;interfaces&#x27;: None, &#x27;ssl_private_key&#x27;: &#x27;&#x27;, &#x27;gae&#x27;: None, &#x27;password&#x27;: &#x27;******&#x27;, &#x27;request_queue_size&#x27;: 5, &#x27;ssl_certificate&#x27;: &#x27;&#x27;, &#x27;cronjob&#x27;: False, &#x27;numthreads&#x27;: None, &#x27;quiet&#x27;: False, &#x27;import_models&#x27;: False, &#x27;timeout&#x27;: 10, &#x27;plain&#x27;: False, &#x27;nobanner&#x27;: False}&gt;</div></td></tr><tr><td style="font-weight:bold;vertical-align:top;">db_sessions</td><td style="vertical-align:top;">:</td><td><div>set([])</div></td></tr><tr><td style="font-weight:bold;vertical-align:top;">debugging</td><td style="vertical-align:top;">:</td><td><div>False</div></td></tr><tr><td style="font-weight:bold;vertical-align:top;">gluon_parent</td><td style="vertical-align:top;">:</td><td><div>C:\\web2py</div></td></tr><tr><td style="font-weight:bold;vertical-align:top;">is_jython</td><td style="vertical-align:top;">:</td><td><div>False</div></td></tr><tr><td style="font-weight:bold;vertical-align:top;">is_pypy</td><td style="vertical-align:top;">:</td><td><div>False</div></td></tr><tr><td style="font-weight:bold;vertical-align:top;">is_source</td><td style="vertical-align:top;">:</td><td><div>False</div></td></tr><tr><td style="font-weight:bold;vertical-align:top;">local_hosts</td><td style="vertical-align:top;">:</td><td><div><table><tr><td><div>10.3.1.88</div></td></tr><tr><td><div>fe80::1041:2307:f5fc:fea7%12</div></td></tr><tr><td><div>fe80::15f0:4669:1e1f:fdfa%9</div></td></tr><tr><td><div>::ffff:127.0.0.1</div></td></tr><tr><td><div>::1</div></td></tr><tr><td><div>2001:0:9d38:90d7:1041:2307:f5fc:fea7</div></td></tr><tr><td><div>Qno</div></td></tr><tr><td><div>127.0.0.1</div></td></tr></table></div></td></tr><tr><td style="font-weight:bold;vertical-align:top;">web2py_version</td><td style="vertical-align:top;">:</td><td><div>2.14.6-stable+timestamp.2016.05.10.00.21.47</div></td></tr></table></div></td></tr><tr><td style="font-weight:bold;vertical-align:top;">is_https</td><td style="vertical-align:top;">:</td><td><div>False</div></td></tr><tr><td style="font-weight:bold;vertical-align:top;">is_local</td><td style="vertical-align:top;">:</td><td><div>True</div></td></tr><tr><td style="font-weight:bold;vertical-align:top;">is_restful</td><td style="vertical-align:top;">:</td><td><div>False</div></td></tr><tr><td style="font-weight:bold;vertical-align:top;">is_scheduler</td><td style="vertical-align:top;">:</td><td><div>False</div></td></tr><tr><td style="font-weight:bold;vertical-align:top;">is_shell</td><td style="vertical-align:top;">:</td><td><div>False</div></td></tr><tr><td style="font-weight:bold;vertical-align:top;">now</td><td style="vertical-align:top;">:</td><td><div>datetime.datetime(2016, 9, 15, 17, 18, 8, 327000)</div></td></tr><tr><td style="font-weight:bold;vertical-align:top;">raw_args</td><td style="vertical-align:top;">:</td><td><div>delete/modelo/1</div></td></tr><tr><td style="font-weight:bold;vertical-align:top;">raw_extension</td><td style="vertical-align:top;">:</td><td><div>None</div></td></tr><tr><td style="font-weight:bold;vertical-align:top;">url</td><td style="vertical-align:top;">:</td><td><div>/TurnoTaller/modeloController/administrar_modelo/delete/modelo/1</div></td></tr><tr><td style="font-weight:bold;vertical-align:top;">utcnow</td><td style="vertical-align:top;">:</td><td><div>datetime.datetime(2016, 9, 15, 20, 18, 8, 327000)</div></td></tr><tr><td style="font-weight:bold;vertical-align:top;">wsgi</td><td style="vertical-align:top;">:</td><td><div>&lt;gluon.main.LazyWSGI object at 0x08E78850&gt;</div></td></tr></table></div>'
tRp70
sS'frames'
p71
(lp72
(dp73
S'file'
p74
S'C:\\web2py\\gluon\\restricted.py'
p75
sS'dump'
p76
(dp77
S'environment'
p78
S"{'A': <class 'gluon.html.A'>, 'ANY_OF': <class 'gluon.validators.ANY_OF'>, 'ASSIGNJS': <function ASSIGNJS>, 'AppConfig': <function AppConfig>, 'Auth': <class 'gluon.tools.Auth'>, 'B': <class 'gluon.html.B'>, 'BEAUTIFY': <class 'gluon.html.BEAUTIFY'>, 'BODY': <class 'gluon.html.BODY'>, 'BR': <class 'gluon.html.BR'>, 'BUTTON': <class 'gluon.html.BUTTON'>, ...}"
p79
sS'ccode'
p80
S'<code object <module> at 089C8068, file "C:\\web2...oTaller\\controllers/modeloController.py", line 3>'
p81
ssS'lnum'
p82
I227
sS'lines'
p83
(dp84
I224
S'            ccode = code'
p85
sI225
S'        else:'
p86
sI226
S'            ccode = compile2(code, layer)'
p87
sI227
S'        exec ccode in environment'
p88
sI228
S'    except HTTP:'
p89
sI229
S'        raise'
p90
sI230
S'    except RestrictedError:'
p91
sI231
S'        # do not encapsulate (obfuscate) the original RestrictedError'
p92
sI222
S'    try:'
p93
sI223
S'        if isinstance(code, types.CodeType):'
p94
ssS'call'
p95
S'(code="#controlador obras sociales\\n#encabezado = {\'desc...ponse._vars=response._caller(administrar_modelo)\\n", environment={\'A\': <class \'gluon.html.A\'>, \'ANY_OF\': <class \'gluon.validators.ANY_OF\'>, \'ASSIGNJS\': <function ASSIGNJS>, \'AppConfig\': <function AppConfig>, \'Auth\': <class \'gluon.tools.Auth\'>, \'B\': <class \'gluon.html.B\'>, \'BEAUTIFY\': <class \'gluon.html.BEAUTIFY\'>, \'BODY\': <class \'gluon.html.BODY\'>, \'BR\': <class \'gluon.html.BR\'>, \'BUTTON\': <class \'gluon.html.BUTTON\'>, ...}, layer=r\'C:\\web2py\\applications\\TurnoTaller\\controllers/modeloController.py\')'
p96
sS'func'
p97
S'restricted'
p98
sa(dp99
g74
S'C:\\web2py\\applications\\TurnoTaller\\controllers\\modeloController.py'
p100
sg76
(dp101
sg82
I7
sg83
(dp102
I1
S'#controlador obras sociales'
p103
sI2
S"#encabezado = {'descripcion': 'Descripcion'}"
p104
sI3
S'@auth.requires_login()'
p105
sI4
S'def administrar_modelo():'
p106
sI5
S'    grid = SQLFORM.grid(db.modelo,user_signature=False,csv=False)'
p107
sI6
S'    return dict(grid=grid)'
p108
ssg95
S'()'
p109
sg97
S'<module>'
p110
sa(dp111
g74
S'C:\\web2py\\gluon\\globals.py'
p112
sg76
(dp113
S'self'
p114
S'undefined'
p115
sS'f'
S'<function administrar_modelo>'
p116
ssg82
I417
sg83
(dp117
I416
S'        self._vars = None'
p118
sI417
S'        self._caller = lambda f: f()'
p119
sI418
S'        self._view_environment = None'
p120
sI419
S'        self._custom_commit = None'
p121
sI420
S'        self._custom_rollback = None'
p122
sI421
S"        self.generic_patterns = ['*']"
p123
sI412
S"        self.flash = ''            # used by the default view layout"
p124
sI413
S'        self.meta = Storage()      # used by web2py_ajax.html'
p125
sI414
S'        self.menu = []             # used by the default view layout'
p126
sI415
S'        self.files = []            # used by web2py_ajax.html'
p127
ssg95
S'(f=<function administrar_modelo>)'
p128
sg97
S'<lambda>'
p129
sa(dp130
g74
S'C:\\web2py\\gluon\\tools.py'
p131
sg76
(dp132
S'action'
p133
S'<function administrar_modelo>'
p134
sS'a'
S'()'
p135
sS'b'
g21
ssg82
I4241
sg83
(dp136
I4236
S'                    flag = condition'
p137
sI4237
S'                if not flag:'
p138
sI4238
S'                    current.session.flash = self.messages.access_denied'
p139
sI4239
S'                    return call_or_redirect('
p140
sI4240
S'                        self.settings.on_failed_authorization)'
p141
sI4241
S'                return action(*a, **b)'
p142
sI4242
S'            f.__doc__ = action.__doc__'
p143
sI4243
S'            f.__name__ = action.__name__'
p144
sI4244
S'            f.__dict__.update(action.__dict__)'
p145
sI4245
S'            return f'
p146
ssg95
S'(*a=(), **b={})'
p147
sg97
S'f'
sa(dp148
g74
S'C:\\web2py\\applications\\TurnoTaller\\controllers\\modeloController.py'
p149
sg76
(dp150
S'builtinFalse'
p151
S'False'
p152
sS'SQLFORM.grid'
p153
S'<function grid>'
p154
sS'global SQLFORM'
p155
S"<class 'gluon.sqlhtml.SQLFORM'>"
p156
sS'db.modelo'
p157
S'<Table modelo (id, descripcion, marca)>'
p158
sS'user_signature'
p159
g115
sS'global db'
p160
S'<DAL uri="postgres:******@localhost:5432/TurnoTaller">'
p161
sS'grid'
p162
g115
sS'csv'
p163
g115
ssg82
I5
sg83
(dp164
I1
S'#controlador obras sociales'
p165
sI2
S"#encabezado = {'descripcion': 'Descripcion'}"
p166
sI3
S'@auth.requires_login()'
p167
sI4
S'def administrar_modelo():'
p168
sI5
S'    grid = SQLFORM.grid(db.modelo,user_signature=False,csv=False)'
p169
sI6
S'    return dict(grid=grid)'
p170
ssg95
S'()'
p171
sg97
S'administrar_modelo'
p172
sa(dp173
g74
S'C:\\web2py\\gluon\\sqlhtml.py'
p174
sg76
(dp175
S'table._id'
p176
S'<pydal.objects.Field object>'
p177
sS'request'
p178
S"<Storage {'_vars': None, 'function': 'administra...der': 'C:\\\\web2py\\\\applications\\\\TurnoTaller\\\\'}>"
p179
sS'db'
p180
S'<DAL uri="postgres:******@localhost:5432/TurnoTaller">'
p181
sS'request.args'
p182
S"['delete', 'modelo', '1']"
p183
sS').delete'
p184
g115
sS'table'
p185
S'<Table modelo (id, descripcion, marca)>'
p186
sS'table._id.name'
p187
S"'id'"
p188
ssg82
I2366
sg83
(dp189
I2368
S"                record = table(request.args[-1]) or redirect(URL('error'))"
p190
sI2369
S'                if deletable(record):'
p191
sI2370
S'                    if ondelete:'
p192
sI2361
S"        elif deletable and request.args(-3) == 'delete':"
p193
sI2362
S'            table = db[request.args[-2]]'
p194
sI2363
S'            if not callable(deletable):'
p195
sI2364
S'                if ondelete:'
p196
sI2365
S'                    ondelete(table, request.args[-1])'
p197
sI2366
S'                db(table[table._id.name] == request.args[-1]).delete()'
p198
sI2367
S'            else:'
p199
ssg95
S"(query=<Table modelo (id, descripcion, marca)>, fields=[<pydal.objects.Field object>, <pydal.objects.Field object>, <pydal.objects.Field object>], field_id=<pydal.objects.Field object>, left=None, headers={}, orderby=None, groupby=None, searchable=True, sortable=True, paginate=20, deletable=True, editable=True, details=True, selectable=None, create=True, csv=False, links=None, links_in_grid=True, upload=<function <lambda>>, args=[], user_signature=False, maxtextlengths={}, maxtextlength=20, onvalidation=None, onfailure=None, oncreate=None, onupdate=None, ondelete=None, sorter_icons=(<gluon.html.XML object>, <gluon.html.XML object>), ui={'button': 'button btn btn-default', 'buttonadd': 'icon plus icon-plus glyphicon glyphicon-plus', 'buttonback': 'icon leftarrow icon-arrow-left glyphicon glyphicon-arrow-left', 'buttondelete': 'icon trash icon-trash glyphicon glyphicon-trash', 'buttonedit': 'icon pen icon-pencil glyphicon glyphicon-pencil', 'buttonexport': 'icon downarrow icon-download glyphicon glyphicon-download', 'buttontable': 'icon rightarrow icon-arrow-right glyphicon glyphicon-arrow-right', 'buttontext': 'buttontext button', 'buttonview': 'icon magnifier icon-zoom-in glyphicon glyphicon-zoom-in', 'content': '', ...}, showbuttontext=True, _class='web2py_grid', formname='web2py_grid', search_widget='default', advanced_search=True, ignore_rw=False, formstyle='bootstrap3_inline', exportclasses=None, formargs={}, createargs={}, editargs={}, viewargs={}, selectable_submit_button='Submit', buttons_placement='right', links_placement='right', noconfirm=False, cache_count=None, client_side_delete=False, ignore_common_filters=None, auto_pagination=True, use_cursor=False)"
p200
sg97
S'grid'
p201
sa(dp202
g74
S'C:\\web2py\\gluon\\packages\\dal\\pydal\\objects.py'
p203
sg76
(dp204
S'self.query'
p205
S'<Query (modelo.id = 1)>'
p206
sS'db._adapter'
p207
S'<pydal.adapters.postgres.PostgreSQLAdapter object>'
p208
sS'db'
p209
S'<DAL uri="postgres:******@localhost:5432/TurnoTaller">'
p210
sS'self'
p211
S'<Set (modelo.id = 1)>'
p212
sS'tablename'
p213
S"'modelo'"
p214
sS'ret'
p215
g115
sS'db._adapter.delete'
p216
S'<bound method PostgreSQLAdapter.delete of <pydal.adapters.postgres.PostgreSQLAdapter object>>'
p217
ssg82
I2040
sg83
(dp218
I2035
S'    def delete(self):'
p219
sI2036
S'        db = self.db'
p220
sI2037
S'        tablename = db._adapter.get_table(self.query)'
p221
sI2038
S'        table = db[tablename]'
p222
sI2039
S'        if any(f(self) for f in table._before_delete): return 0'
p223
sI2040
S'        ret = db._adapter.delete(tablename, self.query)'
p224
sI2041
S'        ret and [f(self) for f in table._after_delete]'
p225
sI2042
S'        return ret'
p226
sI2043
S''
sI2044
S'    def update(self, **update_fields):'
p227
ssg95
S'(self=<Set (modelo.id = 1)>)'
p228
sg97
S'delete'
p229
sa(dp230
g74
S'C:\\web2py\\gluon\\packages\\dal\\pydal\\adapters\\base.py'
p231
sg76
(dp232
S'self'
p233
S'<pydal.adapters.postgres.PostgreSQLAdapter object>'
p234
sS'self.execute'
p235
S'<bound method PostgreSQLAdapter.execute of <pydal.adapters.postgres.PostgreSQLAdapter object>>'
p236
sS'sql'
p237
S"'DELETE FROM modelo WHERE (modelo.id = 1);'"
p238
ssg82
I1049
sg83
(dp239
I1044
S'        tablename = self.db[tablename].sqlsafe'
p240
sI1045
S"        return 'DELETE FROM %s%s;' % (tablename, sql_w)"
p241
sI1046
S''
sI1047
S'    def delete(self, tablename, query):'
p242
sI1048
S'        sql = self._delete(tablename, query)'
p243
sI1049
S'        self.execute(sql)'
p244
sI1050
S'        try:'
p245
sI1051
S'            counter = self.cursor.rowcount'
p246
sI1052
S'        except:'
p247
sI1053
S'            counter =  None'
p248
ssg95
S"(self=<pydal.adapters.postgres.PostgreSQLAdapter object>, tablename='modelo', query=<Query (modelo.id = 1)>)"
p249
sg97
g229
sa(dp250
g74
S'C:\\web2py\\gluon\\packages\\dal\\pydal\\adapters\\postgres.py'
p251
sg76
(dp252
S'a'
S"('DELETE FROM modelo WHERE (modelo.id = 1);',)"
p253
sS'self'
p254
S'<pydal.adapters.postgres.PostgreSQLAdapter object>'
p255
sS'b'
g21
sS'BaseAdapter.execute'
p256
S'<unbound method BaseAdapter.execute>'
p257
sS'global BaseAdapter'
p258
S"<class 'pydal.adapters.base.BaseAdapter'>"
p259
ssg82
I362
sg83
(dp260
I357
S''
sI358
S'    def execute(self, *a, **b):'
p261
sI359
S'        if PY2 and self.driver_name == "pg8000":'
p262
sI360
S'            a = list(a)'
p263
sI361
S"            a[0] = a[0].decode('utf8')"
p264
sI362
S'        return BaseAdapter.execute(self, *a, **b)'
p265
sI363
S''
sI364
S''
sI365
S'class NewPostgreSQLAdapter(PostgreSQLAdapter):'
p266
sI366
S"    drivers = ('psycopg2','pg8000')"
p267
ssg95
S"(self=<pydal.adapters.postgres.PostgreSQLAdapter object>, *a=('DELETE FROM modelo WHERE (modelo.id = 1);',), **b={})"
p268
sg97
S'execute'
p269
sa(dp270
g74
S'C:\\web2py\\gluon\\packages\\dal\\pydal\\adapters\\base.py'
p271
sg76
(dp272
S'a'
S"('DELETE FROM modelo WHERE (modelo.id = 1);',)"
p273
sS'self'
p274
S'<pydal.adapters.postgres.PostgreSQLAdapter object>'
p275
sS'b'
g21
sS'self.log_execute'
p276
S'<bound method PostgreSQLAdapter.log_execute of <pydal.adapters.postgres.PostgreSQLAdapter object>>'
p277
ssg82
I1388
sg83
(dp278
I1383
S'        self.db._timings.append((command,time.time()-t0))'
p279
sI1384
S'        del self.db._timings[:-TIMINGSSIZE]'
p280
sI1385
S'        return ret'
p281
sI1386
S''
sI1387
S'    def execute(self, *a, **b):'
p282
sI1388
S'        return self.log_execute(*a, **b)'
p283
sI1389
S''
sI1390
S'    def execute_test_query(self):'
p284
sI1391
S'        return self.execute(self.test_query)'
p285
sI1392
S''
ssg95
S"(self=<pydal.adapters.postgres.PostgreSQLAdapter object>, *a=('DELETE FROM modelo WHERE (modelo.id = 1);',), **b={})"
p286
sg97
g269
sa(dp287
g74
S'C:\\web2py\\gluon\\packages\\dal\\pydal\\adapters\\base.py'
p288
sg76
(dp289
S'a'
S"('DELETE FROM modelo WHERE (modelo.id = 1);',)"
p290
sS'b'
g21
sS'self'
p291
S'<pydal.adapters.postgres.PostgreSQLAdapter object>'
p292
sS'ret'
p293
g115
sS'command'
p294
S"'DELETE FROM modelo WHERE (modelo.id = 1);'"
p295
sS'self.get_cursor'
p296
S'<bound method PostgreSQLAdapter.get_cursor of <pydal.adapters.postgres.PostgreSQLAdapter object>>'
p297
sS').execute'
p298
g115
ssg82
I1382
sg83
(dp299
I1377
S'            command = self.filter_sql_command(command)'
p300
sI1378
S'        if self.db._debug:'
p301
sI1379
S"            self.db.logger.debug('SQL: %s' % command)"
p302
sI1380
S'        self.db._lastsql = command'
p303
sI1381
S'        t0 = time.time()'
p304
sI1382
S'        ret = self.get_cursor().execute(command, *a[1:], **b)'
p305
sI1383
S'        self.db._timings.append((command,time.time()-t0))'
p306
sI1384
S'        del self.db._timings[:-TIMINGSSIZE]'
p307
sI1385
S'        return ret'
p308
sI1386
S''
ssg95
S"(self=<pydal.adapters.postgres.PostgreSQLAdapter object>, *a=('DELETE FROM modelo WHERE (modelo.id = 1);',), **b={})"
p309
sg97
S'log_execute'
p310
sasS'pyver'
p311
S'Python 2.7.9: C:\\web2py\\web2py.exe (prefix: )'
p312
sS'session'
p313
g69
(S's\x11\n\x00\x00<div><table><tr><td style="font-weight:bold;vertical-align:top;">auth</td><td style="vertical-align:top;">:</td><td><div><table><tr><td style="font-weight:bold;vertical-align:top;">expiration</td><td style="vertical-align:top;">:</td><td><div>3600</div></td></tr><tr><td style="font-weight:bold;vertical-align:top;">hmac_key</td><td style="vertical-align:top;">:</td><td><div>3507cb59-9b8a-48df-ab3f-1718a36f6ee1</div></td></tr><tr><td style="font-weight:bold;vertical-align:top;">last_visit</td><td style="vertical-align:top;">:</td><td><div>datetime.datetime(2016, 9, 15, 17, 15, 28, 92000)</div></td></tr><tr><td style="font-weight:bold;vertical-align:top;">remember_me</td><td style="vertical-align:top;">:</td><td><div>False</div></td></tr><tr><td style="font-weight:bold;vertical-align:top;">user</td><td style="vertical-align:top;">:</td><td><div><table><tr><td style="font-weight:bold;vertical-align:top;">email</td><td style="vertical-align:top;">:</td><td><div>ascaf@cdsvsdv.sdfsd</div></td></tr><tr><td style="font-weight:bold;vertical-align:top;">first_name</td><td style="vertical-align:top;">:</td><td><div>facundo</div></td></tr><tr><td style="font-weight:bold;vertical-align:top;">id</td><td style="vertical-align:top;">:</td><td><div>2L</div></td></tr><tr><td style="font-weight:bold;vertical-align:top;">last_name</td><td style="vertical-align:top;">:</td><td><div>cscdv</div></td></tr><tr><td style="font-weight:bold;vertical-align:top;">registration_id</td><td style="vertical-align:top;">:</td><td><div></div></td></tr><tr><td style="font-weight:bold;vertical-align:top;">registration_key</td><td style="vertical-align:top;">:</td><td><div></div></td></tr><tr><td style="font-weight:bold;vertical-align:top;">reset_password_key</td><td style="vertical-align:top;">:</td><td><div></div></td></tr><tr><td style="font-weight:bold;vertical-align:top;">username</td><td style="vertical-align:top;">:</td><td><div>admin</div></td></tr></table></div></td></tr><tr><td style="font-weight:bold;vertical-align:top;">user_groups</td><td style="vertical-align:top;">:</td><td><div><table></table></div></td></tr></table></div></td></tr><tr><td style="font-weight:bold;vertical-align:top;">flash</td><td style="vertical-align:top;">:</td><td><div>None</div></td></tr><tr><td style="font-weight:bold;vertical-align:top;">last_orderby</td><td style="vertical-align:top;">:</td><td><div>None</div></td></tr><tr><td style="font-weight:bold;vertical-align:top;">last_query</td><td style="vertical-align:top;">:</td><td><div>db.auth_user.id&gt;0</div></td></tr></table></div>'
tRp314
sS'etype'
p315
S"<class 'psycopg2.IntegrityError'>"
p316
sS'date'
p317
S'Thu Sep 15 17:18:08 2016'
p318
sS'response'
p319
g69
(S's\xbb"\x00\x00<div><table><tr><td style="font-weight:bold;vertical-align:top;">body</td><td style="vertical-align:top;">:</td><td><div>&lt;cStringIO.StringO object at 0x08B94400&gt;</div></td></tr><tr><td style="font-weight:bold;vertical-align:top;">cookies</td><td style="vertical-align:top;">:</td><td><div><table><tr><td style="font-weight:bold;vertical-align:top;">session_id_turnotaller</td><td style="vertical-align:top;">:</td><td><div>127.0.0.1-ad50fba4-c61a-499d-ad91-428a26f3f141<table><tr><td style="font-weight:bold;vertical-align:top;">comment</td><td style="vertical-align:top;">:</td><td><div></div></td></tr><tr><td style="font-weight:bold;vertical-align:top;">domain</td><td style="vertical-align:top;">:</td><td><div></div></td></tr><tr><td style="font-weight:bold;vertical-align:top;">expires</td><td style="vertical-align:top;">:</td><td><div></div></td></tr><tr><td style="font-weight:bold;vertical-align:top;">httponly</td><td style="vertical-align:top;">:</td><td><div></div></td></tr><tr><td style="font-weight:bold;vertical-align:top;">max-age</td><td style="vertical-align:top;">:</td><td><div></div></td></tr><tr><td style="font-weight:bold;vertical-align:top;">path</td><td style="vertical-align:top;">:</td><td><div>/</div></td></tr><tr><td style="font-weight:bold;vertical-align:top;">secure</td><td style="vertical-align:top;">:</td><td><div></div></td></tr><tr><td style="font-weight:bold;vertical-align:top;">version</td><td style="vertical-align:top;">:</td><td><div></div></td></tr></table></div></td></tr></table></div></td></tr><tr><td style="font-weight:bold;vertical-align:top;">delimiters</td><td style="vertical-align:top;">:</td><td><div><table><tr><td><div>{{</div></td></tr><tr><td><div>}}</div></td></tr></table></div></td></tr><tr><td style="font-weight:bold;vertical-align:top;">files</td><td style="vertical-align:top;">:</td><td><div><table></table></div></td></tr><tr><td style="font-weight:bold;vertical-align:top;">flash</td><td style="vertical-align:top;">:</td><td><div></div></td></tr><tr><td style="font-weight:bold;vertical-align:top;">form_label_separator</td><td style="vertical-align:top;">:</td><td><div></div></td></tr><tr><td style="font-weight:bold;vertical-align:top;">formstyle</td><td style="vertical-align:top;">:</td><td><div>bootstrap3_inline</div></td></tr><tr><td style="font-weight:bold;vertical-align:top;">generic_patterns</td><td style="vertical-align:top;">:</td><td><div><table><tr><td><div>*</div></td></tr></table></div></td></tr><tr><td style="font-weight:bold;vertical-align:top;">google_analytics_id</td><td style="vertical-align:top;">:</td><td><div>None</div></td></tr><tr><td style="font-weight:bold;vertical-align:top;">headers</td><td style="vertical-align:top;">:</td><td><div><table><tr><td style="font-weight:bold;vertical-align:top;">X-Powered-By</td><td style="vertical-align:top;">:</td><td><div>web2py</div></td></tr></table></div></td></tr><tr><td style="font-weight:bold;vertical-align:top;">logo</td><td style="vertical-align:top;">:</td><td><div><a class="navbar-brand" href="#" id="web2py-logo"><b>Turno-Taller</b>&trade;&nbsp;</a></div></td></tr><tr><td style="font-weight:bold;vertical-align:top;">menu</td><td style="vertical-align:top;">:</td><td><div><table><tr><td><div><table><tr><td><div>Inicio</div></td></tr><tr><td><div>False</div></td></tr><tr><td><div>/TurnoTaller/default/inicio</div></td></tr><tr><td><div><table></table></div></td></tr></table></div></td></tr><tr><td><div><table><tr><td><div>Calendario</div></td></tr><tr><td><div>False</div></td></tr><tr><td><div>/TurnoTaller/default/calendar</div></td></tr><tr><td><div><table></table></div></td></tr></table></div></td></tr><tr><td><div><table><tr><td><div>Clientes</div></td></tr><tr><td><div>False</div></td></tr><tr><td><div>/TurnoTaller/default/getAllPacientes</div></td></tr><tr><td><div><table></table></div></td></tr></table></div></td></tr><tr><td><div><table><tr><td><div>Marca Vehiculo</div></td></tr><tr><td><div>False</div></td></tr><tr><td><div>/TurnoTaller/marcaController/administrar_marca</div></td></tr><tr><td><div><table></table></div></td></tr></table></div></td></tr><tr><td><div><table><tr><td><div>Modelo Vehiculo</div></td></tr><tr><td><div>False</div></td></tr><tr><td><div>/TurnoTaller/modeloController/administrar_modelo</div></td></tr><tr><td><div><table></table></div></td></tr></table></div></td></tr><tr><td><div><table><tr><td><div>Usuarios</div></td></tr><tr><td><div>False</div></td></tr><tr><td><div>/TurnoTaller/userController/administrar_user</div></td></tr><tr><td><div><table></table></div></td></tr></table></div></td></tr><tr><td><div><table><tr><td><div>Permisos Usuarios</div></td></tr><tr><td><div>False</div></td></tr><tr><td><div>/TurnoTaller/userController/administrar_permisos</div></td></tr><tr><td><div><table></table></div></td></tr></table></div></td></tr></table></div></td></tr><tr><td style="font-weight:bold;vertical-align:top;">meta</td><td style="vertical-align:top;">:</td><td><div><table><tr><td style="font-weight:bold;vertical-align:top;">author</td><td style="vertical-align:top;">:</td><td><div>Your Name &lt;you@example.com&gt;</div></td></tr><tr><td style="font-weight:bold;vertical-align:top;">description</td><td style="vertical-align:top;">:</td><td><div>a cool new app</div></td></tr><tr><td style="font-weight:bold;vertical-align:top;">generator</td><td style="vertical-align:top;">:</td><td><div>Web2py Web Framework</div></td></tr><tr><td style="font-weight:bold;vertical-align:top;">keywords</td><td style="vertical-align:top;">:</td><td><div>web2py, python, framework</div></td></tr></table></div></td></tr><tr><td style="font-weight:bold;vertical-align:top;">models_to_run</td><td style="vertical-align:top;">:</td><td><div><table><tr><td><div>^\\w+\\.py$</div></td></tr><tr><td><div>^modeloController/\\w+\\.py$</div></td></tr><tr><td><div>^modeloController/administrar_modelo/\\w+\\.py$</div></td></tr></table></div></td></tr><tr><td style="font-weight:bold;vertical-align:top;">postprocessing</td><td style="vertical-align:top;">:</td><td><div><table></table></div></td></tr><tr><td style="font-weight:bold;vertical-align:top;">session_client</td><td style="vertical-align:top;">:</td><td><div>127.0.0.1</div></td></tr><tr><td style="font-weight:bold;vertical-align:top;">session_cookie_compression_level</td><td style="vertical-align:top;">:</td><td><div>None</div></td></tr><tr><td style="font-weight:bold;vertical-align:top;">session_cookie_expires</td><td style="vertical-align:top;">:</td><td><div>None</div></td></tr><tr><td style="font-weight:bold;vertical-align:top;">session_data_name</td><td style="vertical-align:top;">:</td><td><div>session_data_turnotaller</div></td></tr><tr><td style="font-weight:bold;vertical-align:top;">session_file</td><td style="vertical-align:top;">:</td><td><div>&lt;open file &#x27;C:\\\\web2py\\\\applications\\\\TurnoTaller\\\\sessions\\\\1d8\\\\0c2\\\\127.0.0.1-ad50fba4-c61a-499d-ad91-428a26f3f141&#x27;, mode &#x27;rb+&#x27; at 0x08FA8128&gt;</div></td></tr><tr><td style="font-weight:bold;vertical-align:top;">session_filename</td><td style="vertical-align:top;">:</td><td><div>C:\\web2py\\applications\\TurnoTaller\\sessions\\127.0.0.1-ad50fba4-c61a-499d-ad91-428a26f3f141</div></td></tr><tr><td style="font-weight:bold;vertical-align:top;">session_hash</td><td style="vertical-align:top;">:</td><td><div>a0f63c49b19e02ad800c7c0cf8469586</div></td></tr><tr><td style="font-weight:bold;vertical-align:top;">session_id</td><td style="vertical-align:top;">:</td><td><div>127.0.0.1-ad50fba4-c61a-499d-ad91-428a26f3f141</div></td></tr><tr><td style="font-weight:bold;vertical-align:top;">session_id_name</td><td style="vertical-align:top;">:</td><td><div>session_id_turnotaller</div></td></tr><tr><td style="font-weight:bold;vertical-align:top;">session_locked</td><td style="vertical-align:top;">:</td><td><div>True</div></td></tr><tr><td style="font-weight:bold;vertical-align:top;">session_masterapp</td><td style="vertical-align:top;">:</td><td><div>TurnoTaller</div></td></tr><tr><td style="font-weight:bold;vertical-align:top;">session_new</td><td style="vertical-align:top;">:</td><td><div>False</div></td></tr><tr><td style="font-weight:bold;vertical-align:top;">session_storage_type</td><td style="vertical-align:top;">:</td><td><div>file</div></td></tr><tr><td style="font-weight:bold;vertical-align:top;">status</td><td style="vertical-align:top;">:</td><td><div>200</div></td></tr><tr><td style="font-weight:bold;vertical-align:top;">subtitle</td><td style="vertical-align:top;">:</td><td><div></div></td></tr><tr><td style="font-weight:bold;vertical-align:top;">title</td><td style="vertical-align:top;">:</td><td><div>Turnotaller</div></td></tr><tr><td style="font-weight:bold;vertical-align:top;">view</td><td style="vertical-align:top;">:</td><td><div>modeloController/administrar_modelo.html</div></td></tr></table></div>'
tRp320
sS'locals'
p321
(dp322
S'a'
S"('DELETE FROM modelo WHERE (modelo.id = 1);',)"
p323
sS'self'
p324
S'<pydal.adapters.postgres.PostgreSQLAdapter object>'
p325
sS'b'
g21
sS'command'
p326
S"'DELETE FROM modelo WHERE (modelo.id = 1);'"
p327
sS't0'
p328
S'1473970688.373'
p329
sssS'traceback'
p330
S'Traceback (most recent call last):\n  File "C:\\web2py\\gluon\\restricted.py", line 227, in restricted\n    exec ccode in environment\n  File "C:\\web2py\\applications\\TurnoTaller\\controllers/modeloController.py", line 7, in <module>\n  File "C:\\web2py\\gluon\\globals.py", line 417, in <lambda>\n    self._caller = lambda f: f()\n  File "C:\\web2py\\gluon\\tools.py", line 4241, in f\n    return action(*a, **b)\n  File "C:\\web2py\\applications\\TurnoTaller\\controllers/modeloController.py", line 5, in administrar_modelo\n    grid = SQLFORM.grid(db.modelo,user_signature=False,csv=False)\n  File "C:\\web2py\\gluon\\sqlhtml.py", line 2366, in grid\n    db(table[table._id.name] == request.args[-1]).delete()\n  File "C:\\web2py\\gluon\\packages\\dal\\pydal\\objects.py", line 2040, in delete\n    ret = db._adapter.delete(tablename, self.query)\n  File "C:\\web2py\\gluon\\packages\\dal\\pydal\\adapters\\base.py", line 1049, in delete\n    self.execute(sql)\n  File "C:\\web2py\\gluon\\packages\\dal\\pydal\\adapters\\postgres.py", line 362, in execute\n    return BaseAdapter.execute(self, *a, **b)\n  File "C:\\web2py\\gluon\\packages\\dal\\pydal\\adapters\\base.py", line 1388, in execute\n    return self.log_execute(*a, **b)\n  File "C:\\web2py\\gluon\\packages\\dal\\pydal\\adapters\\base.py", line 1382, in log_execute\n    ret = self.get_cursor().execute(command, *a[1:], **b)\nIntegrityError: update o delete en \xc2\xabmodelo\xc2\xbb viola la llave for\xc3\xa1nea \xc2\xabpaciente_modelo_fkey\xc2\xbb en la tabla \xc2\xabpaciente\xc2\xbb\nDETAIL:  La llave (id)=(1) todav\xc3\xada es referida desde la tabla \xc2\xabpaciente\xc2\xbb.\n\n'
p331
s.